target datalayout = "e-m:e-p270:32:32-p271:32:32-p272:64:64-i64:64-i128:128-f80:128-n8:16:32:64-S128"
target triple = "x86_64-pc-linux-gnu"

; Function Attrs: mustprogress uwtable
define noundef signext i8 @_ZN6duckdb12SignOperator9OperationIfaEET0_T_(float noundef %0) #0 align 2 {
  %2 = alloca i8, align 1
  %3 = alloca float, align 4
  store float %0, ptr %3, align 4, !tbaa !115
  %4 = load float, ptr %3, align 4, !tbaa !115
  %5 = fcmp oeq float %4, 0.000000e+00
  br i1 %5, label %9, label %6

6:                                                ; preds = %1
  %7 = load float, ptr %3, align 4, !tbaa !115
  %8 = call noundef zeroext i1 @_ZN6duckdb5Value5IsNanIfEEbT_(float noundef %7)
  br i1 %8, label %9, label %10

9:                                                ; preds = %6, %1
  store i8 0, ptr %2, align 1
  br label %15

10:                                               ; preds = %6
  %11 = load float, ptr %3, align 4, !tbaa !115
  %12 = fcmp ogt float %11, 0.000000e+00
  br i1 %12, label %13, label %14

13:                                               ; preds = %10
  store i8 1, ptr %2, align 1
  br label %15

14:                                               ; preds = %10
  store i8 -1, ptr %2, align 1
  br label %15

15:                                               ; preds = %14, %13, %9
  %16 = load i8, ptr %2, align 1
  ret i8 %16
}