; Function Attrs: mustprogress uwtable
define noundef signext range(i8 -1, 2) i8 @_ZN6duckdb12SignOperator9OperationIfaEET0_T_(float noundef %0) local_unnamed_addr #0 align 2 {
  %2 = fcmp oeq float %0, 0.000000e+00
  br i1 %2, label %7, label %3

3:                                                ; preds = %1
  %4 = tail call noundef zeroext i1 @_ZN6duckdb5Value5IsNanIfEEbT_(float noundef %0)
  br i1 %4, label %7, label %5

5:                                                ; preds = %3
  %6 = fcmp ogt float %0, 0.000000e+00
  %. = select i1 %6, i8 1, i8 -1
  br label %7

7:                                                ; preds = %5, %1, %3
  %.0 = phi i8 [ 0, %3 ], [ 0, %1 ], [ %., %5 ]
  ret i8 %.0
}